; Function Attrs: nounwind uwtable
define ptr @l_Lean_Elab_LibrarySearch_elabExact_x3fTerm(ptr noundef %0, ptr noundef %1, ptr noundef %2, ptr noundef %3, ptr noundef %4, ptr noundef %5, ptr noundef %6, ptr noundef %7, ptr noundef %8) #0 {
  %10 = load ptr, ptr @l_Lean_Elab_LibrarySearch_elabExact_x3fTerm___closed__2, align 8, !tbaa !9
  %11 = ptrtoint ptr %0 to i64
  %12 = and i64 %11, 1
  %.not = icmp eq i64 %12, 0
  br i1 %.not, label %13, label %lean_inc.exit

13:                                               ; preds = %9
  %.val.i = load i32, ptr %0, align 4, !tbaa !4
  %14 = icmp sgt i32 %.val.i, 0
  br i1 %14, label %15, label %17, !prof !11

15:                                               ; preds = %13
  %16 = add nuw i32 %.val.i, 1
  store i32 %16, ptr %0, align 4, !tbaa !4
  br label %lean_inc.exit

17:                                               ; preds = %13
  %.not.i47 = icmp eq i32 %.val.i, 0
  br i1 %.not.i47, label %lean_inc.exit, label %18

18:                                               ; preds = %17
  tail call void @lean_inc_ref_cold(ptr noundef nonnull %0) #5
  br label %lean_inc.exit

lean_inc.exit:                                    ; preds = %18, %17, %15, %9
  %19 = tail call zeroext i8 @l_Lean_Syntax_isOfKind(ptr noundef %0, ptr noundef %10) #5
  %20 = icmp eq i8 %19, 0
  br i1 %20, label %21, label %93

21:                                               ; preds = %lean_inc.exit
  %22 = ptrtoint ptr %7 to i64
  %23 = and i64 %22, 1
  %.not48 = icmp eq i64 %23, 0
  br i1 %.not48, label %24, label %lean_dec.exit32

24:                                               ; preds = %21
  %25 = load i32, ptr %7, align 4, !tbaa !4
  %26 = icmp sgt i32 %25, 1
  br i1 %26, label %27, label %29, !prof !11

27:                                               ; preds = %24
  %28 = add nsw i32 %25, -1
  store i32 %28, ptr %7, align 4, !tbaa !4
  br label %lean_dec.exit32

29:                                               ; preds = %24
  %.not.i = icmp eq i32 %25, 0
  br i1 %.not.i, label %lean_dec.exit32, label %30

30:                                               ; preds = %29
  tail call void @lean_dec_ref_cold(ptr noundef nonnull %7) #5
  br label %lean_dec.exit32

lean_dec.exit32:                                  ; preds = %30, %29, %27, %21
  %31 = ptrtoint ptr %6 to i64
  %32 = and i64 %31, 1
  %.not49 = icmp eq i64 %32, 0
  br i1 %.not49, label %33, label %lean_dec.exit31

33:                                               ; preds = %lean_dec.exit32
  %34 = load i32, ptr %6, align 4, !tbaa !4
  %35 = icmp sgt i32 %34, 1
  br i1 %35, label %36, label %38, !prof !11

36:                                               ; preds = %33
  %37 = add nsw i32 %34, -1
  store i32 %37, ptr %6, align 4, !tbaa !4
  br label %lean_dec.exit31

38:                                               ; preds = %33
  %.not.i33 = icmp eq i32 %34, 0
  br i1 %.not.i33, label %lean_dec.exit31, label %39

39:                                               ; preds = %38
  tail call void @lean_dec_ref_cold(ptr noundef nonnull %6) #5
  br label %lean_dec.exit31

lean_dec.exit31:                                  ; preds = %39, %38, %36, %lean_dec.exit32
  %40 = ptrtoint ptr %5 to i64
  %41 = and i64 %40, 1
  %.not50 = icmp eq i64 %41, 0
  br i1 %.not50, label %42, label %lean_dec.exit30

42:                                               ; preds = %lean_dec.exit31
  %43 = load i32, ptr %5, align 4, !tbaa !4
  %44 = icmp sgt i32 %43, 1
  br i1 %44, label %45, label %47, !prof !11

45:                                               ; preds = %42
  %46 = add nsw i32 %43, -1
  store i32 %46, ptr %5, align 4, !tbaa !4
  br label %lean_dec.exit30

47:                                               ; preds = %42
  %.not.i35 = icmp eq i32 %43, 0
  br i1 %.not.i35, label %lean_dec.exit30, label %48

48:                                               ; preds = %47
  tail call void @lean_dec_ref_cold(ptr noundef nonnull %5) #5
  br label %lean_dec.exit30

lean_dec.exit30:                                  ; preds = %48, %47, %45, %lean_dec.exit31
  %49 = ptrtoint ptr %4 to i64
  %50 = and i64 %49, 1
  %.not51 = icmp eq i64 %50, 0
  br i1 %.not51, label %51, label %lean_dec.exit29

51:                                               ; preds = %lean_dec.exit30
  %52 = load i32, ptr %4, align 4, !tbaa !4
  %53 = icmp sgt i32 %52, 1
  br i1 %53, label %54, label %56, !prof !11

54:                                               ; preds = %51
  %55 = add nsw i32 %52, -1
  store i32 %55, ptr %4, align 4, !tbaa !4
  br label %lean_dec.exit29

56:                                               ; preds = %51
  %.not.i37 = icmp eq i32 %52, 0
  br i1 %.not.i37, label %lean_dec.exit29, label %57

57:                                               ; preds = %56
  tail call void @lean_dec_ref_cold(ptr noundef nonnull %4) #5
  br label %lean_dec.exit29

lean_dec.exit29:                                  ; preds = %57, %56, %54, %lean_dec.exit30
  %58 = ptrtoint ptr %3 to i64
  %59 = and i64 %58, 1
  %.not52 = icmp eq i64 %59, 0
  br i1 %.not52, label %60, label %lean_dec.exit28

60:                                               ; preds = %lean_dec.exit29
  %61 = load i32, ptr %3, align 4, !tbaa !4
  %62 = icmp sgt i32 %61, 1
  br i1 %62, label %63, label %65, !prof !11

63:                                               ; preds = %60
  %64 = add nsw i32 %61, -1
  store i32 %64, ptr %3, align 4, !tbaa !4
  br label %lean_dec.exit28

65:                                               ; preds = %60
  %.not.i39 = icmp eq i32 %61, 0
  br i1 %.not.i39, label %lean_dec.exit28, label %66

66:                                               ; preds = %65
  tail call void @lean_dec_ref_cold(ptr noundef nonnull %3) #5
  br label %lean_dec.exit28

lean_dec.exit28:                                  ; preds = %66, %65, %63, %lean_dec.exit29
  %67 = ptrtoint ptr %2 to i64
  %68 = and i64 %67, 1
  %.not53 = icmp eq i64 %68, 0
  br i1 %.not53, label %69, label %lean_dec.exit27

69:                                               ; preds = %lean_dec.exit28
  %70 = load i32, ptr %2, align 4, !tbaa !4
  %71 = icmp sgt i32 %70, 1
  br i1 %71, label %72, label %74, !prof !11

72:                                               ; preds = %69
  %73 = add nsw i32 %70, -1
  store i32 %73, ptr %2, align 4, !tbaa !4
  br label %lean_dec.exit27

74:                                               ; preds = %69
  %.not.i41 = icmp eq i32 %70, 0
  br i1 %.not.i41, label %lean_dec.exit27, label %75

75:                                               ; preds = %74
  tail call void @lean_dec_ref_cold(ptr noundef nonnull %2) #5
  br label %lean_dec.exit27

lean_dec.exit27:                                  ; preds = %75, %74, %72, %lean_dec.exit28
  %76 = ptrtoint ptr %1 to i64
  %77 = and i64 %76, 1
  %.not54 = icmp eq i64 %77, 0
  br i1 %.not54, label %78, label %lean_dec.exit26

78:                                               ; preds = %lean_dec.exit27
  %79 = load i32, ptr %1, align 4, !tbaa !4
  %80 = icmp sgt i32 %79, 1
  br i1 %80, label %81, label %83, !prof !11

81:                                               ; preds = %78
  %82 = add nsw i32 %79, -1
  store i32 %82, ptr %1, align 4, !tbaa !4
  br label %lean_dec.exit26

83:                                               ; preds = %78
  %.not.i43 = icmp eq i32 %79, 0
  br i1 %.not.i43, label %lean_dec.exit26, label %84

84:                                               ; preds = %83
  tail call void @lean_dec_ref_cold(ptr noundef nonnull %1) #5
  br label %lean_dec.exit26

lean_dec.exit26:                                  ; preds = %84, %83, %81, %lean_dec.exit27
  br i1 %.not, label %85, label %lean_dec.exit

85:                                               ; preds = %lean_dec.exit26
  %86 = load i32, ptr %0, align 4, !tbaa !4
  %87 = icmp sgt i32 %86, 1
  br i1 %87, label %88, label %90, !prof !11

88:                                               ; preds = %85
  %89 = add nsw i32 %86, -1
  store i32 %89, ptr %0, align 4, !tbaa !4
  br label %lean_dec.exit

90:                                               ; preds = %85
  %.not.i45 = icmp eq i32 %86, 0
  br i1 %.not.i45, label %lean_dec.exit, label %91

91:                                               ; preds = %90
  tail call void @lean_dec_ref_cold(ptr noundef nonnull %0) #5
  br label %lean_dec.exit

lean_dec.exit:                                    ; preds = %91, %90, %88, %lean_dec.exit26
  %92 = tail call ptr @l_Lean_Elab_throwUnsupportedSyntax___at_Lean_Elab_Term_elabLetMVar___spec__1___rarg(ptr noundef %8) #5
  br label %103

93:                                               ; preds = %lean_inc.exit
  tail call void @lean_inc_heartbeat() #5
  %94 = tail call noalias ptr @mi_malloc_small(i64 noundef 32) #5
  %95 = icmp eq ptr %94, null
  br i1 %95, label %96, label %lean_alloc_closure.exit

96:                                               ; preds = %93
  tail call void @lean_internal_panic_out_of_memory() #6
  unreachable

lean_alloc_closure.exit:                          ; preds = %93
  %97 = getelementptr inbounds nuw i8, ptr %94, i64 4
  store i32 1, ptr %94, align 4, !tbaa !4
  store i32 -184549344, ptr %97, align 4
  %98 = getelementptr inbounds nuw i8, ptr %94, i64 8
  store ptr @l_Lean_Elab_LibrarySearch_elabExact_x3fTerm___lambda__5, ptr %98, align 8, !tbaa !9
  %99 = getelementptr inbounds nuw i8, ptr %94, i64 16
  store i16 9, ptr %99, align 8, !tbaa !14
  %100 = getelementptr inbounds nuw i8, ptr %94, i64 18
  store i16 1, ptr %100, align 2, !tbaa !14
  %101 = getelementptr inbounds nuw i8, ptr %94, i64 24
  store ptr %0, ptr %101, align 8, !tbaa !9
  %102 = tail call ptr @l_Lean_Elab_Term_withExpectedType(ptr noundef %1, ptr noundef nonnull %94, ptr noundef %2, ptr noundef %3, ptr noundef %4, ptr noundef %5, ptr noundef %6, ptr noundef %7, ptr noundef %8) #5
  br label %103

103:                                              ; preds = %lean_alloc_closure.exit, %lean_dec.exit
  %.0 = phi ptr [ %92, %lean_dec.exit ], [ %102, %lean_alloc_closure.exit ]
  ret ptr %.0
}